; Function Attrs: nounwind uwtable
define dso_local range(i64 -2147485795483648, 2147485794483648) i64 @timestamptz_time(ptr noundef captures(none) %0) local_unnamed_addr #0 {
  %2 = alloca %struct.pg_tm, align 8
  %3 = alloca i32, align 4
  %4 = alloca i32, align 4
  %5 = getelementptr inbounds nuw i8, ptr %0, i64 32
  %6 = load i64, ptr %5, align 8
  call void @llvm.lifetime.start.p0(i64 56, ptr nonnull %2) #16
  call void @llvm.lifetime.start.p0(i64 4, ptr nonnull %3) #16
  call void @llvm.lifetime.start.p0(i64 4, ptr nonnull %4) #16
  %7 = add i64 %6, -9223372036854775807
  %or.cond = icmp ult i64 %7, 2
  br i1 %or.cond, label %8, label %10

8:                                                ; preds = %1
  %9 = getelementptr inbounds nuw i8, ptr %0, i64 28
  store i8 1, ptr %9, align 4
  br label %31

10:                                               ; preds = %1
  %11 = call i32 @timestamp2tm(i64 noundef %6, ptr noundef nonnull %3, ptr noundef nonnull %2, ptr noundef nonnull %4, ptr noundef null, ptr noundef null) #16
  %.not = icmp eq i32 %11, 0
  br i1 %.not, label %16, label %12

12:                                               ; preds = %10
  %13 = call zeroext i1 @errstart_cold(i32 noundef 21, ptr noundef null) #15
  call void @llvm.assume(i1 %13)
  %14 = call i32 @errcode(i32 noundef 134217858) #16
  %15 = call i32 (ptr, ...) @errmsg(ptr noundef nonnull @.str.19) #16
  call void @errfinish(ptr noundef nonnull @.str.3, i32 noundef 1969, ptr noundef nonnull @__func__.timestamptz_time) #16
  unreachable

16:                                               ; preds = %10
  %17 = getelementptr inbounds nuw i8, ptr %2, i64 8
  %18 = load i32, ptr %17, align 8
  %19 = mul i32 %18, 60
  %20 = getelementptr inbounds nuw i8, ptr %2, i64 4
  %21 = load i32, ptr %20, align 4
  %22 = add i32 %19, %21
  %23 = mul i32 %22, 60
  %24 = load i32, ptr %2, align 8
  %25 = add i32 %23, %24
  %26 = sext i32 %25 to i64
  %27 = mul nsw i64 %26, 1000000
  %28 = load i32, ptr %4, align 4
  %29 = sext i32 %28 to i64
  %30 = add nsw i64 %27, %29
  br label %31

31:                                               ; preds = %16, %8
  %.0 = phi i64 [ 0, %8 ], [ %30, %16 ]
  call void @llvm.lifetime.end.p0(i64 4, ptr nonnull %4) #16
  call void @llvm.lifetime.end.p0(i64 4, ptr nonnull %3) #16
  call void @llvm.lifetime.end.p0(i64 56, ptr nonnull %2) #16
  ret i64 %.0
}